_ZN4llvm11LLVMContextC1Ev
_ZN4llvm11raw_ostream14flush_nonemptyEv
_ZN4llvm11raw_ostream5writeEh
_ZN4llvm11raw_ostream5writeEPKcm
_ZN4llvm11raw_ostreamlsEd
_ZN4llvm11raw_ostreamlsEl
_ZN4llvm11raw_ostreamlsEm
_ZN4llvm11raw_ostreamlsEPKv
_ZN4llvm11raw_ostreamlsEx
_ZN4llvm11raw_ostreamlsEy
_ZN4llvm12MemoryBuffer16getMemBufferCopyENS_9StringRefES1_
_ZN4llvm13llvm_shutdownEv
_ZN4llvm18raw_string_ostreamD1Ev
_ZN4llvm22FoldingSetIteratorImpl7advanceEv
_ZN4llvm22FoldingSetIteratorImplC2EPPv
_ZN4llvm4errsEv
_ZN4llvm5APInt12initSlowCaseEjyb
_ZN4llvm5APInt12initSlowCaseERKS0_
_ZNK4llvm5APInt16countLeadingOnesEv
_ZNK4llvm5APInt25countLeadingZerosSlowCaseEv
_ZNK4llvm5APIntntEv
_ZNK4llvm5APIntixEj
_ZN5clang10ASTContextC1ERNS_11LangOptionsERNS_13SourceManagerEPKNS_10TargetInfoERNS_15IdentifierTableERNS_13SelectorTableERNS_7Builtin7ContextEjb
_ZN5clang10RecordType7classofEPKNS_7TagTypeE
_ZN5clang11DeclContext7classofEPKNS_4DeclE
_ZN5clang11ParmVarDecl13getDefaultArgEv
_ZN5clang12Preprocessor13EndSourceFileEv
_ZN5clang13SourceManager13clearIDTablesEv
_ZN5clang13SourceManager23getOrCreateContentCacheEPKNS_9FileEntryE
_ZN5clang13SourceManager27createMemBufferContentCacheEPKN4llvm12MemoryBufferE
_ZN5clang15ObjCMessageExpr8childrenEv
_ZN5clang16CompilerInstance13setASTContextEPNS_10ASTContextE
_ZN5clang16CompilerInstance14setASTConsumerEPNS_11ASTConsumerE
_ZN5clang16CompilerInstance16clearOutputFilesEb
_ZN5clang16CompilerInstance18createPreprocessorEv
_ZN5clang16StmtIteratorBase6NextVAEv
_ZN5clang16StmtIteratorBase8NextDeclEb
_ZN5clang17ClassTemplateDecl18getSpecializationsEv
_ZN5clang17CreateLLVMCodeGenERNS_17DiagnosticsEngineERKSsRKNS_14CodeGenOptionsERN4llvm11LLVMContextE
_ZN5clang18CompilerInvocation14CreateFromArgsERS0_PKPKcS5_RNS_17DiagnosticsEngineE
_ZN5clang21TextDiagnosticPrinterC1ERN4llvm11raw_ostreamERKNS_17DiagnosticOptionsEb
_ZN5clang24RedeclarableTemplateDecl12getCommonPtrEv
_ZN5clang24UnaryExprOrTypeTraitExpr8childrenEv
_ZN5clang26TemplateSpecializationType25PrintTemplateArgumentListEPKNS_16TemplateArgumentEjRKNS_14PrintingPolicyEb
_ZN5clang4Decl17castToDeclContextEPKS0_
_ZN5clang4Decl19castFromDeclContextEPKNS_11DeclContextE
_ZN5clang7Builtin7Context18InitializeBuiltinsERNS_15IdentifierTableERKNS_11LangOptionsE
_ZN5clang8EnumType7classofEPKNS_7TagTypeE
_ZN5clang8ParseASTERNS_12PreprocessorEPNS_11ASTConsumerERNS_10ASTContextEbNS_19TranslationUnitKindEPNS_20CodeCompleteConsumerE
_ZN5clang8QualType11getAsStringEPKNS_4TypeENS_10QualifiersE
_ZN5clang9ASTReader21getOriginalSourceFileERKSsRNS_11FileManagerERNS_17DiagnosticsEngineE
_ZN5cling11Interpreter11executeFileERKSs
_ZN5cling11Interpreter11processLineERKSsb
_ZN5cling11Interpreter14AddIncludePathEPKc
_ZN5cling11Interpreter15writeStartupPCHEv
_ZN5cling11Interpreter8EvaluateEPKcPN5clang11DeclContextEb
_ZN5cling11Interpreter26installLazyFunctionCreatorEPFPvRKSsE
_ZN5cling11Interpreter7dumpASTEbi
_ZN5cling11Interpreter8loadFileERKSsPS1_b
_ZN5cling11InterpreterC1EiPKPKcS2_S2_
_ZN5cling11InterpreterC2EiPKPKcS2_S2_
_ZN5cling11InterpreterD1Ev
_ZN5cling13MetaProcessor7processEPKc
_ZN5cling13MetaProcessorC1ERNS_11InterpreterE
_ZN5cling13UserInterface16runInteractivelyEb
_ZN5cling13UserInterfaceC1ERNS_11InterpreterEPKc
_ZN5cling13UserInterfaceD1Ev
_ZN5cling7runtime8internal16local_cxa_atexitEPFvPvES2_S2_PNS_11InterpreterE
_ZN5cling7runtime8internal21__trigger__cxa_atexitD1Ev
_ZN5cling9CIFactory8createCIEPN4llvm12MemoryBufferEPN5clang15PragmaNamespaceEiPKPKcS8_
_ZNK4llvm5APInt8toStringEjb
_ZNK4llvm5Value7getNameEv
_ZNK5clang10RecordDecl19isInjectedClassNameEv
_ZNK5clang11BuiltinType7getNameERKNS_14PrintingPolicyE
_ZNK5clang11DeclContext11decls_beginEv
_ZNK5clang11DeclContext9decls_endEv
_ZNK5clang12FunctionDecl12getNumParamsEv
_ZNK5clang12FunctionDecl29getTemplateSpecializationKindEv
_ZNK5clang12TemplateName5printERN4llvm11raw_ostreamERKNS_14PrintingPolicyEb
_ZNK5clang13CXXMethodDecl22end_overridden_methodsEv
_ZNK5clang13CXXMethodDecl24begin_overridden_methodsEv
_ZNK5clang13CXXRecordDecl29getTemplateSpecializationKindEv
_ZNK5clang13SourceManager14getPresumedLocENS_14SourceLocationE
_ZNK5clang14SourceLocation5printERN4llvm11raw_ostreamERKNS_13SourceManagerE
_ZNK5clang15DeclarationName11getAsStringEv
_ZNK5clang16StmtIteratorBase11GetDeclExprEv
_ZNK5clang18CXXConstructorDecl17isCopyConstructorERj
_ZNK5clang18CXXConstructorDecl23isConvertingConstructorEb
_ZNK5clang19NestedNameSpecifier7getKindEv
_ZNK5clang20UnresolvedMemberExpr16isImplicitAccessEv
_ZNK5clang22NestedNameSpecifierLoc10getTypeLocEv
_ZNK5clang27CXXDependentScopeMemberExpr16isImplicitAccessEv
_ZNK5clang31ClassTemplateSpecializationDecl22getSpecializedTemplateEv
_ZNK5clang4Decl13getASTContextEv
_ZNK5clang4Decl15getDeclKindNameEv
_ZNK5clang4Decl22CheckAccessDeclContextEv
_ZNK5clang4Stmt11printPrettyERN4llvm11raw_ostreamERNS_10ASTContextEPNS_13PrinterHelperERKNS_14PrintingPolicyEj
_ZNK5clang4Type16getTypeClassNameEv
_ZNK5clang4Type27getUnqualifiedDesugaredTypeEv
_ZNK5clang7TagDecl13getDefinitionEv
_ZNK5clang7TagType7getDeclEv
_ZNK5clang9NamedDecl24getQualifiedNameAsStringEv
_ZN5cling15DynamicExprInfo7getExprEv
_ZNK5cling11Interpreter10getVersionEv
_ZNK5cling11Interpreter5getCIEv
_ZN5cling11Interpreter12setCallbacksEPNS_20InterpreterCallbacksE
_ZTVN4llvm11raw_ostreamE
_ZTVN4llvm18raw_string_ostreamE
_ZTVN5clang11ASTConsumerE
_ZTVN4llvm16JITEventListenerE
_ZN5cling11Interpreter10LookupDeclEN4llvm9StringRefEPN5clang11DeclContextE
_ZN5cling11Interpreter15NamedDeclResult10LookupDeclEN4llvm9StringRefE
_ZN4llvm15SmallVectorBase8grow_podEmm
_ZNK5cling11Interpreter15NamedDeclResult13getSingleDeclEv
_ZN5clang24VerifyDiagnosticConsumerC1ERNS_17DiagnosticsEngineE
_ZN5clang17DiagnosticsEngine9setClientEPNS_18DiagnosticConsumerEb
_ZN5clang13SourceManager12createFileIDEPKNS_6SrcMgr12ContentCacheENS_14SourceLocationENS1_18CharacteristicKindEij
_ZNK5clang4Type14getPointeeTypeEv
_ZN5cling16ValuePrinterInfoC1EPN5clang4ExprEPNS1_10ASTContextE
_ZN5cling17printValueDefaultERN4llvm11raw_ostreamEPKvRKNS_16ValuePrinterInfoE
_ZN5cling12flushOStreamERN4llvm11raw_ostreamE
_ZN5cling11Interpreter19enableDynamicLookupEb
