LIBRARY Reflex
EXPORTS
   ??0Array@Reflex@@QAE@ABVType@1@IABVtype_info@@@Z
   ??0Class@Reflex@@QAE@PBDIABVtype_info@@IW4TYPE@1@@Z
   ??0ClassTemplateInstance@Reflex@@QAE@PBDIABVtype_info@@I@Z
   ??0DataMember@Reflex@@QAE@PBDABVType@1@II@Z
   ??0FunctionMember@Reflex@@QAE@PBDABVType@1@P6AXPAX2ABV?$vector@PAXV?$allocator@PAX@std@@@std@@2@Z20IW4TYPE@1@@Z
   ??0Function@Reflex@@QAE@ABVType@1@ABV?$vector@VType@Reflex@@V?$allocator@VType@Reflex@@@std@@@std@@ABVtype_info@@W4TYPE@1@@Z
   ??0Fundamental@Reflex@@QAE@PBDIABVtype_info@@@Z
   ??0Namespace@Reflex@@QAE@PBD@Z
   ??0Pointer@Reflex@@QAE@ABVType@1@ABVtype_info@@@Z
   ??0Typedef@Reflex@@QAE@PBDABVType@1@W4TYPE@1@1@Z
   ??1Class@Reflex@@UAE@XZ
   ??1DataMember@Reflex@@UAE@XZ
   ??1Typedef@Reflex@@UAE@XZ
   ?AddBase@Class@Reflex@@UBEXABVType@2@P6AIPAX@ZI@Z
   ?AddDataMember@Class@Reflex@@UBEXAAVMember@2@PBDABVType@2@II@Z
   ?AddDataMember@Class@Reflex@@UBEXABVMember@2@@Z
   ?AddDataMember@Class@Reflex@@UBEXPBDABVType@2@II@Z
   ?AddFunctionMember@Class@Reflex@@UBEXABVMember@2@@Z
   ?AddFunctionMember@Class@Reflex@@UBEXPBDABVType@2@P6AXPAX2ABV?$vector@PAXV?$allocator@PAX@std@@@std@@2@Z20I@Z
   ?CastObject@Class@Reflex@@UBE?AVObject@2@ABVType@2@ABV32@@Z
   ?Construct@Class@Reflex@@UBE?AVObject@2@ABVType@2@ABV?$vector@PAXV?$allocator@PAX@std@@@std@@PAX@Z
   ?Destruct@Class@Reflex@@UBEXPAX_N@Z
   ?DynamicType@Class@Reflex@@UBE?AVType@2@ABVObject@2@@Z
   ?GenerateDict@Class@Reflex@@UBEXAAVDictionaryGenerator@2@@Z
   ?GenerateDict@Namespace@Reflex@@UBEXAAVDictionaryGenerator@2@@Z
   ?HasBase@Class@Reflex@@UBE_NABVType@2@@Z
   ?IsComplete@Class@Reflex@@UBE_NXZ
   ?Name@Array@Reflex@@UBE?AV?$basic_string@DU?$char_traits@D@std@@V?$allocator@D@2@@std@@I@Z
   ?Name@ClassTemplateInstance@Reflex@@UBE?AV?$basic_string@DU?$char_traits@D@std@@V?$allocator@D@2@@std@@I@Z
   ?Name@Function@Reflex@@UBE?AV?$basic_string@DU?$char_traits@D@std@@V?$allocator@D@2@@std@@I@Z
   ?Name@Pointer@Reflex@@UBE?AV?$basic_string@DU?$char_traits@D@std@@V?$allocator@D@2@@std@@I@Z
   ?RemoveDataMember@Class@Reflex@@UBEXABVMember@2@@Z
   ?RemoveFunctionMember@Class@Reflex@@UBEXABVMember@2@@Z
   ?SimpleName@ClassTemplateInstance@Reflex@@UBEABV?$basic_string@DU?$char_traits@D@std@@V?$allocator@D@2@@std@@AAII@Z
   ?TemplateArgumentAt@ClassTemplateInstance@Reflex@@UBE?AVType@2@I@Z
   ?UpdateMembers@Class@Reflex@@UBEXXZ

